; ModuleID = '5/773.c'
source_filename = "5/773.c"
target datalayout = "e-m:e-p270:32:32-p271:32:32-p272:64:64-i64:64-f80:128-n8:16:32:64-S128"
target triple = "x86_64-pc-linux-gnu"

@.str = private unnamed_addr constant [4 x i8] c"%lf\00", align 1
@.str.1 = private unnamed_addr constant [3 x i8] c"%s\00", align 1
@.str.2 = private unnamed_addr constant [6 x i8] c"error\00", align 1
@.str.3 = private unnamed_addr constant [4 x i8] c"yes\00", align 1
@.str.4 = private unnamed_addr constant [3 x i8] c"no\00", align 1

; Function Attrs: noinline nounwind uwtable
define dso_local i32 @main() #0 {
  %1 = alloca i32, align 4
  %2 = alloca i32, align 4
  %3 = alloca i32, align 4
  %4 = alloca i32, align 4
  %5 = alloca i32, align 4
  %6 = alloca i32, align 4
  %7 = alloca double, align 8
  %8 = alloca double, align 8
  %9 = alloca [2 x [10000 x i8]], align 16
  store i32 0, i32* %1, align 4
  store i32 0, i32* %5, align 4
  store i32 0, i32* %6, align 4
  %10 = call i32 (i8*, ...) @__isoc99_scanf(i8* getelementptr inbounds ([4 x i8], [4 x i8]* @.str, i64 0, i64 0), double* %7)
  %11 = getelementptr inbounds [2 x [10000 x i8]], [2 x [10000 x i8]]* %9, i64 0, i64 0
  %12 = getelementptr inbounds [10000 x i8], [10000 x i8]* %11, i64 0, i64 0
  %13 = call i32 (i8*, ...) @__isoc99_scanf(i8* getelementptr inbounds ([3 x i8], [3 x i8]* @.str.1, i64 0, i64 0), i8* %12)
  %14 = getelementptr inbounds [2 x [10000 x i8]], [2 x [10000 x i8]]* %9, i64 0, i64 1
  %15 = getelementptr inbounds [10000 x i8], [10000 x i8]* %14, i64 0, i64 0
  %16 = call i32 (i8*, ...) @__isoc99_scanf(i8* getelementptr inbounds ([3 x i8], [3 x i8]* @.str.1, i64 0, i64 0), i8* %15)
  %17 = getelementptr inbounds [2 x [10000 x i8]], [2 x [10000 x i8]]* %9, i64 0, i64 0
  %18 = getelementptr inbounds [10000 x i8], [10000 x i8]* %17, i64 0, i64 0
  %19 = call i64 @strlen(i8* %18) #3
  %20 = trunc i64 %19 to i32
  store i32 %20, i32* %3, align 4
  %21 = getelementptr inbounds [2 x [10000 x i8]], [2 x [10000 x i8]]* %9, i64 0, i64 1
  %22 = getelementptr inbounds [10000 x i8], [10000 x i8]* %21, i64 0, i64 0
  %23 = call i64 @strlen(i8* %22) #3
  %24 = trunc i64 %23 to i32
  store i32 %24, i32* %4, align 4
  store i32 0, i32* %2, align 4
  br label %25

25:                                               ; preds = %79, %0
  %26 = getelementptr inbounds [2 x [10000 x i8]], [2 x [10000 x i8]]* %9, i64 0, i64 0
  %27 = load i32, i32* %2, align 4
  %28 = sext i32 %27 to i64
  %29 = getelementptr inbounds [10000 x i8], [10000 x i8]* %26, i64 0, i64 %28
  %30 = load i8, i8* %29, align 1
  %31 = sext i8 %30 to i32
  %32 = icmp ne i32 %31, 0
  br i1 %32, label %33, label %41

33:                                               ; preds = %25
  %34 = getelementptr inbounds [2 x [10000 x i8]], [2 x [10000 x i8]]* %9, i64 0, i64 1
  %35 = load i32, i32* %2, align 4
  %36 = sext i32 %35 to i64
  %37 = getelementptr inbounds [10000 x i8], [10000 x i8]* %34, i64 0, i64 %36
  %38 = load i8, i8* %37, align 1
  %39 = sext i8 %38 to i32
  %40 = icmp ne i32 %39, 0
  br label %41

41:                                               ; preds = %33, %25
  %42 = phi i1 [ false, %25 ], [ %40, %33 ]
  br i1 %42, label %43, label %82

43:                                               ; preds = %41
  %44 = getelementptr inbounds [2 x [10000 x i8]], [2 x [10000 x i8]]* %9, i64 0, i64 0
  %45 = load i32, i32* %2, align 4
  %46 = sext i32 %45 to i64
  %47 = getelementptr inbounds [10000 x i8], [10000 x i8]* %44, i64 0, i64 %46
  %48 = load i8, i8* %47, align 1
  %49 = sext i8 %48 to i32
  %50 = icmp sgt i32 %49, 97
  br i1 %50, label %51, label %59

51:                                               ; preds = %43
  %52 = getelementptr inbounds [2 x [10000 x i8]], [2 x [10000 x i8]]* %9, i64 0, i64 0
  %53 = load i32, i32* %2, align 4
  %54 = sext i32 %53 to i64
  %55 = getelementptr inbounds [10000 x i8], [10000 x i8]* %52, i64 0, i64 %54
  %56 = load i8, i8* %55, align 1
  %57 = sext i8 %56 to i32
  %58 = icmp slt i32 %57, 122
  br i1 %58, label %75, label %59

59:                                               ; preds = %51, %43
  %60 = getelementptr inbounds [2 x [10000 x i8]], [2 x [10000 x i8]]* %9, i64 0, i64 1
  %61 = load i32, i32* %2, align 4
  %62 = sext i32 %61 to i64
  %63 = getelementptr inbounds [10000 x i8], [10000 x i8]* %60, i64 0, i64 %62
  %64 = load i8, i8* %63, align 1
  %65 = sext i8 %64 to i32
  %66 = icmp sgt i32 %65, 97
  br i1 %66, label %67, label %78

67:                                               ; preds = %59
  %68 = getelementptr inbounds [2 x [10000 x i8]], [2 x [10000 x i8]]* %9, i64 0, i64 1
  %69 = load i32, i32* %2, align 4
  %70 = sext i32 %69 to i64
  %71 = getelementptr inbounds [10000 x i8], [10000 x i8]* %68, i64 0, i64 %70
  %72 = load i8, i8* %71, align 1
  %73 = sext i8 %72 to i32
  %74 = icmp slt i32 %73, 122
  br i1 %74, label %75, label %78

75:                                               ; preds = %67, %51
  %76 = load i32, i32* %6, align 4
  %77 = add nsw i32 %76, 1
  store i32 %77, i32* %6, align 4
  br label %78

78:                                               ; preds = %75, %67, %59
  br label %79

79:                                               ; preds = %78
  %80 = load i32, i32* %2, align 4
  %81 = add nsw i32 %80, 1
  store i32 %81, i32* %2, align 4
  br label %25

82:                                               ; preds = %41
  %83 = load i32, i32* %3, align 4
  %84 = load i32, i32* %4, align 4
  %85 = icmp ne i32 %83, %84
  br i1 %85, label %89, label %86

86:                                               ; preds = %82
  %87 = load i32, i32* %6, align 4
  %88 = icmp sgt i32 %87, 0
  br i1 %88, label %89, label %91

89:                                               ; preds = %86, %82
  %90 = call i32 (i8*, ...) @printf(i8* getelementptr inbounds ([6 x i8], [6 x i8]* @.str.2, i64 0, i64 0))
  br label %136

91:                                               ; preds = %86
  store i32 0, i32* %2, align 4
  br label %92

92:                                               ; preds = %118, %91
  %93 = getelementptr inbounds [2 x [10000 x i8]], [2 x [10000 x i8]]* %9, i64 0, i64 0
  %94 = load i32, i32* %2, align 4
  %95 = sext i32 %94 to i64
  %96 = getelementptr inbounds [10000 x i8], [10000 x i8]* %93, i64 0, i64 %95
  %97 = load i8, i8* %96, align 1
  %98 = sext i8 %97 to i32
  %99 = icmp ne i32 %98, 0
  br i1 %99, label %100, label %121

100:                                              ; preds = %92
  %101 = getelementptr inbounds [2 x [10000 x i8]], [2 x [10000 x i8]]* %9, i64 0, i64 0
  %102 = load i32, i32* %2, align 4
  %103 = sext i32 %102 to i64
  %104 = getelementptr inbounds [10000 x i8], [10000 x i8]* %101, i64 0, i64 %103
  %105 = load i8, i8* %104, align 1
  %106 = sext i8 %105 to i32
  %107 = getelementptr inbounds [2 x [10000 x i8]], [2 x [10000 x i8]]* %9, i64 0, i64 1
  %108 = load i32, i32* %2, align 4
  %109 = sext i32 %108 to i64
  %110 = getelementptr inbounds [10000 x i8], [10000 x i8]* %107, i64 0, i64 %109
  %111 = load i8, i8* %110, align 1
  %112 = sext i8 %111 to i32
  %113 = icmp eq i32 %106, %112
  br i1 %113, label %114, label %117

114:                                              ; preds = %100
  %115 = load i32, i32* %5, align 4
  %116 = add nsw i32 %115, 1
  store i32 %116, i32* %5, align 4
  br label %117

117:                                              ; preds = %114, %100
  br label %118

118:                                              ; preds = %117
  %119 = load i32, i32* %2, align 4
  %120 = add nsw i32 %119, 1
  store i32 %120, i32* %2, align 4
  br label %92

121:                                              ; preds = %92
  %122 = load i32, i32* %5, align 4
  %123 = sitofp i32 %122 to double
  %124 = fmul double 1.000000e+00, %123
  %125 = load i32, i32* %3, align 4
  %126 = sitofp i32 %125 to double
  %127 = fdiv double %124, %126
  store double %127, double* %8, align 8
  %128 = load double, double* %8, align 8
  %129 = load double, double* %7, align 8
  %130 = fcmp oge double %128, %129
  br i1 %130, label %131, label %133

131:                                              ; preds = %121
  %132 = call i32 (i8*, ...) @printf(i8* getelementptr inbounds ([4 x i8], [4 x i8]* @.str.3, i64 0, i64 0))
  br label %135

133:                                              ; preds = %121
  %134 = call i32 (i8*, ...) @printf(i8* getelementptr inbounds ([3 x i8], [3 x i8]* @.str.4, i64 0, i64 0))
  br label %135

135:                                              ; preds = %133, %131
  br label %136

136:                                              ; preds = %135, %89
  ret i32 0
}

declare dso_local i32 @__isoc99_scanf(i8*, ...) #1

; Function Attrs: nounwind readonly
declare dso_local i64 @strlen(i8*) #2

declare dso_local i32 @printf(i8*, ...) #1


!llvm.module.flags = !{!0}
!llvm.ident = !{!1}

!0 = !{i32 1, !"wchar_size", i32 4}
!1 = !{!"clang version 10.0.0-4ubuntu1 "}
